; Function Attrs: nounwind uwtable
define void @ossl_method_store_free(ptr noundef %0) local_unnamed_addr #0 {
  %.not = icmp eq ptr %0, null
  br i1 %.not, label %12, label %2

2:                                                ; preds = %1
  %3 = getelementptr inbounds nuw i8, ptr %0, i64 8
  %4 = load ptr, ptr %3, align 8, !tbaa !15
  %.not9 = icmp eq ptr %4, null
  br i1 %.not9, label %6, label %5

5:                                                ; preds = %2
  tail call void @ossl_sa_doall_arg(ptr noundef nonnull %4, ptr noundef nonnull @alg_cleanup, ptr noundef nonnull %0) #7
  %.pre = load ptr, ptr %3, align 8, !tbaa !15
  br label %6

6:                                                ; preds = %5, %2
  %7 = phi ptr [ %.pre, %5 ], [ null, %2 ]
  tail call void @ossl_sa_free(ptr noundef %7) #7
  %8 = getelementptr inbounds nuw i8, ptr %0, i64 16
  %9 = load ptr, ptr %8, align 8, !tbaa !16
  tail call void @CRYPTO_THREAD_lock_free(ptr noundef %9) #7
  %10 = getelementptr inbounds nuw i8, ptr %0, i64 24
  %11 = load ptr, ptr %10, align 8, !tbaa !17
  tail call void @CRYPTO_THREAD_lock_free(ptr noundef %11) #7
  tail call void @CRYPTO_free(ptr noundef nonnull %0, ptr noundef nonnull @.str, i32 noundef 268) #7
  br label %12

12:                                               ; preds = %6, %1
  ret void
}